target datalayout = "e-m:e-p270:32:32-p271:32:32-p272:64:64-i64:64-i128:128-f80:128-n8:16:32:64-S128"
target triple = "x86_64-pc-linux-gnu"

%"class.(anonymous namespace)::CXXNameMangler::AbiTagState" = type { %"class.llvm::SmallVector.508", %"class.llvm::SmallVector.508", ptr, ptr }
%"class.llvm::SmallVector.508" = type { %"class.llvm::SmallVectorImpl.509", %"struct.llvm::SmallVectorStorage.512" }
%"class.llvm::SmallVectorImpl.509" = type { %"class.llvm::SmallVectorTemplateBase.510" }
%"class.llvm::SmallVectorTemplateBase.510" = type { %"class.llvm::SmallVectorTemplateCommon.511" }
%"class.llvm::SmallVectorTemplateCommon.511" = type { %"class.llvm::SmallVectorBase" }
%"class.llvm::SmallVectorBase" = type { ptr, i32, i32 }
%"struct.llvm::SmallVectorStorage.512" = type { [64 x i8] }
%"class.llvm::StringRef" = type { ptr, i64 }

; Function Attrs: mustprogress nounwind uwtable
define linkonce_odr hidden noundef ptr @_ZNK4llvm25SmallVectorTemplateCommonINS_9StringRefEvE10getFirstElEv(ptr noundef nonnull align 8 dereferenceable(16) %0) #0 comdat align 2 {
  %2 = alloca ptr, align 8
  store ptr %0, ptr %2, align 8
  %3 = load ptr, ptr %2, align 8
  %4 = getelementptr inbounds i8, ptr %3, i64 16
  ret ptr %4
}

; Function Attrs: mustprogress nounwind uwtable
define linkonce_odr hidden noundef zeroext i1 @_ZNK4llvm25SmallVectorTemplateCommonINS_9StringRefEvE7isSmallEv(ptr noundef nonnull align 8 dereferenceable(16) %0) #0 comdat align 2 {
  %2 = alloca ptr, align 8
  store ptr %0, ptr %2, align 8
  %3 = load ptr, ptr %2, align 8
  %4 = getelementptr inbounds nuw %"class.llvm::SmallVectorBase", ptr %3, i32 0, i32 0
  %5 = load ptr, ptr %4, align 8
  %6 = call noundef ptr @_ZNK4llvm25SmallVectorTemplateCommonINS_9StringRefEvE10getFirstElEv(ptr noundef nonnull align 8 dereferenceable(16) %3)
  %7 = icmp eq ptr %5, %6
  ret i1 %7
}

; Function Attrs: mustprogress nounwind uwtable
define linkonce_odr hidden void @_ZN4llvm15SmallVectorImplINS_9StringRefEED2Ev(ptr noundef nonnull align 8 dereferenceable(16) %0) unnamed_addr #0 comdat align 2 {
  %2 = alloca ptr, align 8
  store ptr %0, ptr %2, align 8
  %3 = load ptr, ptr %2, align 8
  %4 = call noundef zeroext i1 @_ZNK4llvm25SmallVectorTemplateCommonINS_9StringRefEvE7isSmallEv(ptr noundef nonnull align 8 dereferenceable(16) %3)
  br i1 %4, label %7, label %5

5:                                                ; preds = %1
  %6 = call noundef ptr @_ZN4llvm25SmallVectorTemplateCommonINS_9StringRefEvE5beginEv(ptr noundef nonnull align 8 dereferenceable(16) %3)
  call void @free(ptr noundef %6) #15
  br label %7

7:                                                ; preds = %5, %1
  ret void
}

; Function Attrs: mustprogress nounwind uwtable
define linkonce_odr hidden void @_ZN4llvm23SmallVectorTemplateBaseINS_9StringRefELb1EE13destroy_rangeEPS1_S3_(ptr noundef %0, ptr noundef %1) #0 comdat align 2 {
  %3 = alloca ptr, align 8
  %4 = alloca ptr, align 8
  store ptr %0, ptr %3, align 8
  store ptr %1, ptr %4, align 8
  ret void
}

; Function Attrs: mustprogress nounwind uwtable
define linkonce_odr hidden noundef ptr @_ZN4llvm25SmallVectorTemplateCommonINS_9StringRefEvE5beginEv(ptr noundef nonnull align 8 dereferenceable(16) %0) #0 comdat align 2 {
  %2 = alloca ptr, align 8
  store ptr %0, ptr %2, align 8
  %3 = load ptr, ptr %2, align 8
  %4 = getelementptr inbounds nuw %"class.llvm::SmallVectorBase", ptr %3, i32 0, i32 0
  %5 = load ptr, ptr %4, align 8
  ret ptr %5
}

; Function Attrs: mustprogress nounwind uwtable
define linkonce_odr hidden noundef ptr @_ZN4llvm25SmallVectorTemplateCommonINS_9StringRefEvE3endEv(ptr noundef nonnull align 8 dereferenceable(16) %0) #0 comdat align 2 {
  %2 = alloca ptr, align 8
  store ptr %0, ptr %2, align 8
  %3 = load ptr, ptr %2, align 8
  %4 = call noundef ptr @_ZN4llvm25SmallVectorTemplateCommonINS_9StringRefEvE5beginEv(ptr noundef nonnull align 8 dereferenceable(16) %3)
  %5 = call noundef i64 @_ZNK4llvm15SmallVectorBaseIjE4sizeEv(ptr noundef nonnull align 8 dereferenceable(16) %3)
  %6 = getelementptr inbounds %"class.llvm::StringRef", ptr %4, i64 %5
  ret ptr %6
}

; Function Attrs: mustprogress nounwind uwtable
define linkonce_odr hidden void @_ZN4llvm11SmallVectorINS_9StringRefELj4EED2Ev(ptr noundef nonnull align 8 dereferenceable(80) %0) unnamed_addr #0 comdat align 2 {
  %2 = alloca ptr, align 8
  store ptr %0, ptr %2, align 8
  %3 = load ptr, ptr %2, align 8
  %4 = call noundef ptr @_ZN4llvm25SmallVectorTemplateCommonINS_9StringRefEvE5beginEv(ptr noundef nonnull align 8 dereferenceable(16) %3)
  %5 = call noundef ptr @_ZN4llvm25SmallVectorTemplateCommonINS_9StringRefEvE3endEv(ptr noundef nonnull align 8 dereferenceable(16) %3)
  call void @_ZN4llvm23SmallVectorTemplateBaseINS_9StringRefELb1EE13destroy_rangeEPS1_S3_(ptr noundef %4, ptr noundef %5)
  call void @_ZN4llvm15SmallVectorImplINS_9StringRefEED2Ev(ptr noundef nonnull align 8 dereferenceable(16) %3) #15
  ret void
}

; Function Attrs: mustprogress nounwind uwtable
define internal void @_ZN12_GLOBAL__N_114CXXNameMangler11AbiTagState3popEv(ptr noundef nonnull align 8 dereferenceable(176) %0) #0 align 2 {
  %2 = alloca ptr, align 8
  store ptr %0, ptr %2, align 8
  %3 = load ptr, ptr %2, align 8
  %4 = getelementptr inbounds nuw %"class.(anonymous namespace)::CXXNameMangler::AbiTagState", ptr %3, i32 0, i32 3
  %5 = load ptr, ptr %4, align 8
  %6 = icmp ne ptr %5, null
  br i1 %6, label %7, label %32

7:                                                ; preds = %1
  %8 = getelementptr inbounds nuw %"class.(anonymous namespace)::CXXNameMangler::AbiTagState", ptr %3, i32 0, i32 3
  %9 = load ptr, ptr %8, align 8
  %10 = getelementptr inbounds nuw %"class.(anonymous namespace)::CXXNameMangler::AbiTagState", ptr %9, i32 0, i32 0
  %11 = getelementptr inbounds nuw %"class.(anonymous namespace)::CXXNameMangler::AbiTagState", ptr %3, i32 0, i32 3
  %12 = load ptr, ptr %11, align 8
  %13 = getelementptr inbounds nuw %"class.(anonymous namespace)::CXXNameMangler::AbiTagState", ptr %12, i32 0, i32 0
  %14 = call noundef ptr @_ZN4llvm25SmallVectorTemplateCommonINS_9StringRefEvE3endEv(ptr noundef nonnull align 8 dereferenceable(16) %13)
  %15 = getelementptr inbounds nuw %"class.(anonymous namespace)::CXXNameMangler::AbiTagState", ptr %3, i32 0, i32 0
  %16 = call noundef ptr @_ZN4llvm25SmallVectorTemplateCommonINS_9StringRefEvE5beginEv(ptr noundef nonnull align 8 dereferenceable(16) %15)
  %17 = getelementptr inbounds nuw %"class.(anonymous namespace)::CXXNameMangler::AbiTagState", ptr %3, i32 0, i32 0
  %18 = call noundef ptr @_ZN4llvm25SmallVectorTemplateCommonINS_9StringRefEvE3endEv(ptr noundef nonnull align 8 dereferenceable(16) %17)
  %19 = call noundef ptr @_ZN4llvm15SmallVectorImplINS_9StringRefEE6insertIPS1_vEES4_S4_T_S5_(ptr noundef nonnull align 8 dereferenceable(16) %10, ptr noundef %14, ptr noundef %16, ptr noundef %18)
  %20 = getelementptr inbounds nuw %"class.(anonymous namespace)::CXXNameMangler::AbiTagState", ptr %3, i32 0, i32 3
  %21 = load ptr, ptr %20, align 8
  %22 = getelementptr inbounds nuw %"class.(anonymous namespace)::CXXNameMangler::AbiTagState", ptr %21, i32 0, i32 1
  %23 = getelementptr inbounds nuw %"class.(anonymous namespace)::CXXNameMangler::AbiTagState", ptr %3, i32 0, i32 3
  %24 = load ptr, ptr %23, align 8
  %25 = getelementptr inbounds nuw %"class.(anonymous namespace)::CXXNameMangler::AbiTagState", ptr %24, i32 0, i32 1
  %26 = call noundef ptr @_ZN4llvm25SmallVectorTemplateCommonINS_9StringRefEvE3endEv(ptr noundef nonnull align 8 dereferenceable(16) %25)
  %27 = getelementptr inbounds nuw %"class.(anonymous namespace)::CXXNameMangler::AbiTagState", ptr %3, i32 0, i32 1
  %28 = call noundef ptr @_ZN4llvm25SmallVectorTemplateCommonINS_9StringRefEvE5beginEv(ptr noundef nonnull align 8 dereferenceable(16) %27)
  %29 = getelementptr inbounds nuw %"class.(anonymous namespace)::CXXNameMangler::AbiTagState", ptr %3, i32 0, i32 1
  %30 = call noundef ptr @_ZN4llvm25SmallVectorTemplateCommonINS_9StringRefEvE3endEv(ptr noundef nonnull align 8 dereferenceable(16) %29)
  %31 = call noundef ptr @_ZN4llvm15SmallVectorImplINS_9StringRefEE6insertIPS1_vEES4_S4_T_S5_(ptr noundef nonnull align 8 dereferenceable(16) %22, ptr noundef %26, ptr noundef %28, ptr noundef %30)
  br label %32

32:                                               ; preds = %7, %1
  %33 = getelementptr inbounds nuw %"class.(anonymous namespace)::CXXNameMangler::AbiTagState", ptr %3, i32 0, i32 3
  %34 = load ptr, ptr %33, align 8
  %35 = getelementptr inbounds nuw %"class.(anonymous namespace)::CXXNameMangler::AbiTagState", ptr %3, i32 0, i32 2
  %36 = load ptr, ptr %35, align 8
  store ptr %34, ptr %36, align 8
  ret void
}

; Function Attrs: mustprogress nounwind uwtable
define internal void @_ZN12_GLOBAL__N_114CXXNameMangler11AbiTagStateD2Ev(ptr noundef nonnull align 8 dereferenceable(176) %0) unnamed_addr #0 align 2 {
  %2 = alloca ptr, align 8
  store ptr %0, ptr %2, align 8
  %3 = load ptr, ptr %2, align 8
  call void @_ZN12_GLOBAL__N_114CXXNameMangler11AbiTagState3popEv(ptr noundef nonnull align 8 dereferenceable(176) %3)
  %4 = getelementptr inbounds nuw %"class.(anonymous namespace)::CXXNameMangler::AbiTagState", ptr %3, i32 0, i32 1
  call void @_ZN4llvm11SmallVectorINS_9StringRefELj4EED2Ev(ptr noundef nonnull align 8 dereferenceable(80) %4) #15
  %5 = getelementptr inbounds nuw %"class.(anonymous namespace)::CXXNameMangler::AbiTagState", ptr %3, i32 0, i32 0
  call void @_ZN4llvm11SmallVectorINS_9StringRefELj4EED2Ev(ptr noundef nonnull align 8 dereferenceable(80) %5) #15
  ret void
}