; Function Attrs: mustprogress nounwind uwtable
define internal fastcc void @_ZN12_GLOBAL__N_114CXXNameMangler11AbiTagStateD2Ev(ptr noundef nonnull align 8 dereferenceable(176) %0) unnamed_addr #0 align 2 {
  %2 = getelementptr inbounds nuw i8, ptr %0, i64 168
  %3 = load ptr, ptr %2, align 8
  %.not.i = icmp eq ptr %3, null
  br i1 %.not.i, label %_ZN12_GLOBAL__N_114CXXNameMangler11AbiTagState3popEv.exit, label %4

4:                                                ; preds = %1
  %5 = load ptr, ptr %3, align 8
  %6 = tail call noundef i64 @_ZNK4llvm15SmallVectorBaseIjE4sizeEv(ptr noundef nonnull align 8 dereferenceable(16) %3) #24
  %7 = getelementptr inbounds %"class.llvm::StringRef", ptr %5, i64 %6
  %8 = load ptr, ptr %0, align 8
  %9 = tail call noundef i64 @_ZNK4llvm15SmallVectorBaseIjE4sizeEv(ptr noundef nonnull align 8 dereferenceable(16) %0) #24
  %10 = getelementptr inbounds %"class.llvm::StringRef", ptr %8, i64 %9
  %11 = tail call noundef ptr @_ZN4llvm15SmallVectorImplINS_9StringRefEE6insertIPS1_vEES4_S4_T_S5_(ptr noundef nonnull align 8 dereferenceable(16) %3, ptr noundef %7, ptr noundef %8, ptr noundef %10)
  %12 = load ptr, ptr %2, align 8
  %13 = getelementptr inbounds nuw i8, ptr %12, i64 80
  %14 = load ptr, ptr %13, align 8
  %15 = tail call noundef i64 @_ZNK4llvm15SmallVectorBaseIjE4sizeEv(ptr noundef nonnull align 8 dereferenceable(16) %13) #24
  %16 = getelementptr inbounds %"class.llvm::StringRef", ptr %14, i64 %15
  %17 = getelementptr inbounds nuw i8, ptr %0, i64 80
  %18 = load ptr, ptr %17, align 8
  %19 = tail call noundef i64 @_ZNK4llvm15SmallVectorBaseIjE4sizeEv(ptr noundef nonnull align 8 dereferenceable(16) %17) #24
  %20 = getelementptr inbounds %"class.llvm::StringRef", ptr %18, i64 %19
  %21 = tail call noundef ptr @_ZN4llvm15SmallVectorImplINS_9StringRefEE6insertIPS1_vEES4_S4_T_S5_(ptr noundef nonnull align 8 dereferenceable(16) %13, ptr noundef %16, ptr noundef %18, ptr noundef %20)
  %.pre.i = load ptr, ptr %2, align 8
  br label %_ZN12_GLOBAL__N_114CXXNameMangler11AbiTagState3popEv.exit

_ZN12_GLOBAL__N_114CXXNameMangler11AbiTagState3popEv.exit: ; preds = %1, %4
  %22 = phi ptr [ %.pre.i, %4 ], [ null, %1 ]
  %23 = getelementptr inbounds nuw i8, ptr %0, i64 160
  %24 = load ptr, ptr %23, align 8
  store ptr %22, ptr %24, align 8
  %25 = getelementptr inbounds nuw i8, ptr %0, i64 80
  %26 = tail call noundef i64 @_ZNK4llvm15SmallVectorBaseIjE4sizeEv(ptr noundef nonnull align 8 dereferenceable(16) %25) #24
  %27 = load ptr, ptr %25, align 8
  %28 = getelementptr inbounds i8, ptr %0, i64 96
  %29 = icmp eq ptr %27, %28
  br i1 %29, label %_ZN4llvm11SmallVectorINS_9StringRefELj4EED2Ev.exit, label %30

30:                                               ; preds = %_ZN12_GLOBAL__N_114CXXNameMangler11AbiTagState3popEv.exit
  tail call void @free(ptr noundef %27) #24
  br label %_ZN4llvm11SmallVectorINS_9StringRefELj4EED2Ev.exit

_ZN4llvm11SmallVectorINS_9StringRefELj4EED2Ev.exit: ; preds = %_ZN12_GLOBAL__N_114CXXNameMangler11AbiTagState3popEv.exit, %30
  %31 = tail call noundef i64 @_ZNK4llvm15SmallVectorBaseIjE4sizeEv(ptr noundef nonnull align 8 dereferenceable(16) %0) #24
  %32 = load ptr, ptr %0, align 8
  %33 = getelementptr inbounds i8, ptr %0, i64 16
  %34 = icmp eq ptr %32, %33
  br i1 %34, label %_ZN4llvm11SmallVectorINS_9StringRefELj4EED2Ev.exit1, label %35

35:                                               ; preds = %_ZN4llvm11SmallVectorINS_9StringRefELj4EED2Ev.exit
  tail call void @free(ptr noundef %32) #24
  br label %_ZN4llvm11SmallVectorINS_9StringRefELj4EED2Ev.exit1

_ZN4llvm11SmallVectorINS_9StringRefELj4EED2Ev.exit1: ; preds = %_ZN4llvm11SmallVectorINS_9StringRefELj4EED2Ev.exit, %35
  ret void
}